; Function Attrs: mustprogress nofree norecurse nosync nounwind null_pointer_is_valid sspstrong willreturn memory(argmem: read) uwtable
define hidden zeroext i1 @cf_has_unsaved_data(ptr noundef readonly captures(none) %0) local_unnamed_addr #7 {
  %2 = getelementptr inbounds nuw i8, ptr %0, i64 32
  %3 = load i8, ptr %2, align 8, !range !9, !noundef !10
  %4 = trunc nuw i8 %3 to i1
  br i1 %4, label %5, label %8

5:                                                ; preds = %1
  %6 = getelementptr inbounds nuw i8, ptr %0, i64 72
  %7 = load i32, ptr %6, align 8
  %.not = icmp eq i32 %7, 0
  br i1 %.not, label %8, label %12

8:                                                ; preds = %5, %1
  %9 = getelementptr inbounds nuw i8, ptr %0, i64 33
  %10 = load i8, ptr %9, align 1, !range !9, !noundef !10
  %11 = trunc nuw i8 %10 to i1
  br label %12

12:                                               ; preds = %8, %5
  %13 = phi i1 [ true, %5 ], [ %11, %8 ]
  ret i1 %13
}